target datalayout = "e-m:e-p270:32:32-p271:32:32-p272:64:64-i64:64-i128:128-f80:128-n8:16:32:64-S128"
target triple = "x86_64-pc-linux-gnu"

%struct.WalSummarizerData = type { i8, i32, i64, i8, i32, i64, %struct.ConditionVariable }
%struct.ConditionVariable = type { i8, %struct.proclist_head }
%struct.proclist_head = type { i32, i32 }
%union.LWLockPadded = type { %struct.LWLock, [112 x i8] }
%struct.LWLock = type { i16, %struct.pg_atomic_uint32, %struct.proclist_head }
%struct.pg_atomic_uint32 = type { i32 }
%struct.PROC_HDR = type { ptr, ptr, ptr, ptr, i32, %struct.dlist_head, %struct.dlist_head, %struct.dlist_head, %struct.dlist_head, %struct.pg_atomic_uint32, %struct.pg_atomic_uint32, i32, i32, i32, i32 }
%struct.dlist_head = type { %struct.dlist_node }
%struct.dlist_node = type { ptr, ptr }
%struct.PGPROC = type { %struct.dlist_node, ptr, ptr, i32, %struct.Latch, i32, i32, i32, i32, %struct.anon, i32, i32, i32, i8, i8, i8, i8, %struct.proclist_node, %struct.proclist_node, ptr, ptr, i32, i32, %struct.pg_atomic_uint64, i32, i8, i64, i32, %struct.dlist_node, [16 x %struct.dlist_head], %struct.XidCacheStatus, %struct.XidCache, i8, %struct.pg_atomic_uint32, i32, i32, i8, %struct.pg_atomic_uint32, i32, i32, i64, i64, %struct.LWLock, ptr, ptr, i8, i32, ptr, %struct.dlist_head, %struct.dlist_node }
%struct.Latch = type { i32, i32, i8, i32 }
%struct.anon = type { i32, i32 }
%struct.proclist_node = type { i32, i32 }
%struct.pg_atomic_uint64 = type { i64 }
%struct.XidCacheStatus = type { i8, i8 }
%struct.XidCache = type { [64 x i32] }

@WalSummarizerCtl = internal global ptr null, align 8
@MainLWLockArray = external global ptr, align 8
@ProcGlobal = external global ptr, align 8

; Function Attrs: nounwind uwtable
define dso_local void @GetWalSummarizerState(ptr noundef %0, ptr noundef %1, ptr noundef %2, ptr noundef %3) #0 {
  %5 = alloca ptr, align 8
  %6 = alloca ptr, align 8
  %7 = alloca ptr, align 8
  %8 = alloca ptr, align 8
  %9 = alloca i32, align 4
  store ptr %0, ptr %5, align 8
  store ptr %1, ptr %6, align 8
  store ptr %2, ptr %7, align 8
  store ptr %3, ptr %8, align 8
  %10 = load ptr, ptr @MainLWLockArray, align 8
  %11 = getelementptr inbounds %union.LWLockPadded, ptr %10, i64 49
  %12 = call zeroext i1 @LWLockAcquire(ptr noundef %11, i32 noundef 1)
  %13 = load ptr, ptr @WalSummarizerCtl, align 8
  %14 = getelementptr inbounds nuw %struct.WalSummarizerData, ptr %13, i32 0, i32 0
  %15 = load i8, ptr %14, align 8, !range !4, !noundef !5
  %16 = trunc i8 %15 to i1
  br i1 %16, label %22, label %17

17:                                               ; preds = %4
  %18 = load ptr, ptr %5, align 8
  store i32 0, ptr %18, align 4
  %19 = load ptr, ptr %6, align 8
  store i64 0, ptr %19, align 8
  %20 = load ptr, ptr %7, align 8
  store i64 0, ptr %20, align 8
  %21 = load ptr, ptr %8, align 8
  store i32 -1, ptr %21, align 4
  br label %63

22:                                               ; preds = %4
  call void @llvm.lifetime.start.p0(i64 4, ptr %9) #12
  %23 = load ptr, ptr @WalSummarizerCtl, align 8
  %24 = getelementptr inbounds nuw %struct.WalSummarizerData, ptr %23, i32 0, i32 4
  %25 = load i32, ptr %24, align 4
  store i32 %25, ptr %9, align 4
  %26 = load ptr, ptr @WalSummarizerCtl, align 8
  %27 = getelementptr inbounds nuw %struct.WalSummarizerData, ptr %26, i32 0, i32 1
  %28 = load i32, ptr %27, align 4
  %29 = load ptr, ptr %5, align 8
  store i32 %28, ptr %29, align 4
  %30 = load ptr, ptr @WalSummarizerCtl, align 8
  %31 = getelementptr inbounds nuw %struct.WalSummarizerData, ptr %30, i32 0, i32 2
  %32 = load i64, ptr %31, align 8
  %33 = load ptr, ptr %6, align 8
  store i64 %32, ptr %33, align 8
  %34 = load i32, ptr %9, align 4
  %35 = icmp eq i32 %34, -1
  br i1 %35, label %36, label %42

36:                                               ; preds = %22
  %37 = load ptr, ptr @WalSummarizerCtl, align 8
  %38 = getelementptr inbounds nuw %struct.WalSummarizerData, ptr %37, i32 0, i32 2
  %39 = load i64, ptr %38, align 8
  %40 = load ptr, ptr %7, align 8
  store i64 %39, ptr %40, align 8
  %41 = load ptr, ptr %8, align 8
  store i32 -1, ptr %41, align 4
  br label %62

42:                                               ; preds = %22
  %43 = load ptr, ptr @WalSummarizerCtl, align 8
  %44 = getelementptr inbounds nuw %struct.WalSummarizerData, ptr %43, i32 0, i32 5
  %45 = load i64, ptr %44, align 8
  %46 = load ptr, ptr %7, align 8
  store i64 %45, ptr %46, align 8
  %47 = load ptr, ptr @ProcGlobal, align 8
  %48 = getelementptr inbounds nuw %struct.PROC_HDR, ptr %47, i32 0, i32 0
  %49 = load ptr, ptr %48, align 8
  %50 = load i32, ptr %9, align 4
  %51 = sext i32 %50 to i64
  %52 = getelementptr inbounds %struct.PGPROC, ptr %49, i64 %51
  %53 = getelementptr inbounds nuw %struct.PGPROC, ptr %52, i32 0, i32 7
  %54 = load i32, ptr %53, align 4
  %55 = load ptr, ptr %8, align 8
  store i32 %54, ptr %55, align 4
  %56 = load ptr, ptr %8, align 8
  %57 = load i32, ptr %56, align 4
  %58 = icmp sle i32 %57, 0
  br i1 %58, label %59, label %61

59:                                               ; preds = %42
  %60 = load ptr, ptr %8, align 8
  store i32 -1, ptr %60, align 4
  br label %61

61:                                               ; preds = %59, %42
  br label %62

62:                                               ; preds = %61, %36
  call void @llvm.lifetime.end.p0(i64 4, ptr %9) #12
  br label %63

63:                                               ; preds = %62, %17
  %64 = load ptr, ptr @MainLWLockArray, align 8
  %65 = getelementptr inbounds %union.LWLockPadded, ptr %64, i64 49
  call void @LWLockRelease(ptr noundef %65)
  ret void
}