; Function Attrs: nounwind uwtable
define dso_local void @GetWalSummarizerState(ptr noundef writeonly captures(none) initializes((0, 4)) %0, ptr noundef writeonly captures(none) initializes((0, 8)) %1, ptr noundef writeonly captures(none) initializes((0, 8)) %2, ptr noundef writeonly captures(none) initializes((0, 4)) %3) local_unnamed_addr #1 {
  %5 = load ptr, ptr @MainLWLockArray, align 8
  %6 = getelementptr inbounds nuw i8, ptr %5, i64 6272
  %7 = tail call zeroext i1 @LWLockAcquire(ptr noundef nonnull %6, i32 noundef 1) #11
  %8 = load ptr, ptr @WalSummarizerCtl, align 8
  %9 = load i8, ptr %8, align 8, !range !4, !noundef !5
  %10 = trunc nuw i8 %9 to i1
  br i1 %10, label %12, label %11

11:                                               ; preds = %4
  store i32 0, ptr %0, align 4
  store i64 0, ptr %1, align 8
  store i64 0, ptr %2, align 8
  br label %30

12:                                               ; preds = %4
  %13 = getelementptr inbounds nuw i8, ptr %8, i64 20
  %14 = load i32, ptr %13, align 4
  %15 = getelementptr inbounds nuw i8, ptr %8, i64 4
  %16 = load i32, ptr %15, align 4
  store i32 %16, ptr %0, align 4
  %17 = getelementptr inbounds nuw i8, ptr %8, i64 8
  %18 = load i64, ptr %17, align 8
  store i64 %18, ptr %1, align 8
  %19 = icmp eq i32 %14, -1
  br i1 %19, label %20, label %21

20:                                               ; preds = %12
  store i64 %18, ptr %2, align 8
  br label %30

21:                                               ; preds = %12
  %22 = getelementptr inbounds nuw i8, ptr %8, i64 24
  %23 = load i64, ptr %22, align 8
  store i64 %23, ptr %2, align 8
  %24 = load ptr, ptr @ProcGlobal, align 8
  %25 = load ptr, ptr %24, align 8
  %26 = sext i32 %14 to i64
  %27 = getelementptr inbounds %struct.PGPROC, ptr %25, i64 %26, i32 7
  %28 = load i32, ptr %27, align 4
  %29 = icmp slt i32 %28, 1
  %spec.store.select = select i1 %29, i32 -1, i32 %28
  br label %30

30:                                               ; preds = %21, %20, %11
  %spec.store.select.sink = phi i32 [ %spec.store.select, %21 ], [ -1, %20 ], [ -1, %11 ]
  store i32 %spec.store.select.sink, ptr %3, align 4
  %31 = load ptr, ptr @MainLWLockArray, align 8
  %32 = getelementptr inbounds nuw i8, ptr %31, i64 6272
  tail call void @LWLockRelease(ptr noundef nonnull %32) #11
  ret void
}